; ModuleID = '24/653.c'
source_filename = "24/653.c"
target datalayout = "e-m:e-p270:32:32-p271:32:32-p272:64:64-i64:64-f80:128-n8:16:32:64-S128"
target triple = "x86_64-pc-linux-gnu"

@.str = private unnamed_addr constant [3 x i8] c"%s\00", align 1
@.str.1 = private unnamed_addr constant [3 x i8] c"%c\00", align 1
@.str.2 = private unnamed_addr constant [7 x i8] c"%s\0A%s\0A\00", align 1

; Function Attrs: noinline nounwind uwtable
define dso_local i32 @main() #0 {
  %1 = alloca i32, align 4
  %2 = alloca [50 x [20 x i8]], align 16
  %3 = alloca i8, align 1
  %4 = alloca [50 x i8], align 16
  %5 = alloca [50 x i8], align 16
  %6 = alloca i32, align 4
  %7 = alloca i32, align 4
  store i32 0, i32* %1, align 4
  store i32 0, i32* %6, align 4
  br label %8

8:                                                ; preds = %21, %0
  %9 = load i32, i32* %6, align 4
  %10 = sext i32 %9 to i64
  %11 = getelementptr inbounds [50 x [20 x i8]], [50 x [20 x i8]]* %2, i64 0, i64 %10
  %12 = getelementptr inbounds [20 x i8], [20 x i8]* %11, i64 0, i64 0
  %13 = call i32 (i8*, ...) @__isoc99_scanf(i8* getelementptr inbounds ([3 x i8], [3 x i8]* @.str, i64 0, i64 0), i8* %12)
  %14 = call i32 (i8*, ...) @__isoc99_scanf(i8* getelementptr inbounds ([3 x i8], [3 x i8]* @.str.1, i64 0, i64 0), i8* %3)
  %15 = load i8, i8* %3, align 1
  %16 = sext i8 %15 to i32
  %17 = icmp eq i32 %16, 10
  br i1 %17, label %18, label %20

18:                                               ; preds = %8
  %19 = load i32, i32* %6, align 4
  store i32 %19, i32* %7, align 4
  br label %24

20:                                               ; preds = %8
  br label %21

21:                                               ; preds = %20
  %22 = load i32, i32* %6, align 4
  %23 = add nsw i32 %22, 1
  store i32 %23, i32* %6, align 4
  br label %8

24:                                               ; preds = %18
  %25 = getelementptr inbounds [50 x i8], [50 x i8]* %4, i64 0, i64 0
  %26 = getelementptr inbounds [50 x [20 x i8]], [50 x [20 x i8]]* %2, i64 0, i64 0
  %27 = getelementptr inbounds [20 x i8], [20 x i8]* %26, i64 0, i64 0
  %28 = call i8* @strcpy(i8* %25, i8* %27) #4
  %29 = getelementptr inbounds [50 x i8], [50 x i8]* %5, i64 0, i64 0
  %30 = getelementptr inbounds [50 x [20 x i8]], [50 x [20 x i8]]* %2, i64 0, i64 0
  %31 = getelementptr inbounds [20 x i8], [20 x i8]* %30, i64 0, i64 0
  %32 = call i8* @strcpy(i8* %29, i8* %31) #4
  store i32 0, i32* %6, align 4
  br label %33

33:                                               ; preds = %70, %24
  %34 = load i32, i32* %6, align 4
  %35 = load i32, i32* %7, align 4
  %36 = icmp sle i32 %34, %35
  br i1 %36, label %37, label %73

37:                                               ; preds = %33
  %38 = load i32, i32* %6, align 4
  %39 = sext i32 %38 to i64
  %40 = getelementptr inbounds [50 x [20 x i8]], [50 x [20 x i8]]* %2, i64 0, i64 %39
  %41 = getelementptr inbounds [20 x i8], [20 x i8]* %40, i64 0, i64 0
  %42 = call i64 @strlen(i8* %41) #5
  %43 = getelementptr inbounds [50 x i8], [50 x i8]* %4, i64 0, i64 0
  %44 = call i64 @strlen(i8* %43) #5
  %45 = icmp ugt i64 %42, %44
  br i1 %45, label %46, label %53

46:                                               ; preds = %37
  %47 = getelementptr inbounds [50 x i8], [50 x i8]* %4, i64 0, i64 0
  %48 = load i32, i32* %6, align 4
  %49 = sext i32 %48 to i64
  %50 = getelementptr inbounds [50 x [20 x i8]], [50 x [20 x i8]]* %2, i64 0, i64 %49
  %51 = getelementptr inbounds [20 x i8], [20 x i8]* %50, i64 0, i64 0
  %52 = call i8* @strcpy(i8* %47, i8* %51) #4
  br label %53

53:                                               ; preds = %46, %37
  %54 = load i32, i32* %6, align 4
  %55 = sext i32 %54 to i64
  %56 = getelementptr inbounds [50 x [20 x i8]], [50 x [20 x i8]]* %2, i64 0, i64 %55
  %57 = getelementptr inbounds [20 x i8], [20 x i8]* %56, i64 0, i64 0
  %58 = call i64 @strlen(i8* %57) #5
  %59 = getelementptr inbounds [50 x i8], [50 x i8]* %5, i64 0, i64 0
  %60 = call i64 @strlen(i8* %59) #5
  %61 = icmp ult i64 %58, %60
  br i1 %61, label %62, label %69

62:                                               ; preds = %53
  %63 = getelementptr inbounds [50 x i8], [50 x i8]* %5, i64 0, i64 0
  %64 = load i32, i32* %6, align 4
  %65 = sext i32 %64 to i64
  %66 = getelementptr inbounds [50 x [20 x i8]], [50 x [20 x i8]]* %2, i64 0, i64 %65
  %67 = getelementptr inbounds [20 x i8], [20 x i8]* %66, i64 0, i64 0
  %68 = call i8* @strcpy(i8* %63, i8* %67) #4
  br label %69

69:                                               ; preds = %62, %53
  br label %70

70:                                               ; preds = %69
  %71 = load i32, i32* %6, align 4
  %72 = add nsw i32 %71, 1
  store i32 %72, i32* %6, align 4
  br label %33

73:                                               ; preds = %33
  %74 = getelementptr inbounds [50 x i8], [50 x i8]* %4, i64 0, i64 0
  %75 = getelementptr inbounds [50 x i8], [50 x i8]* %5, i64 0, i64 0
  %76 = call i32 (i8*, ...) @printf(i8* getelementptr inbounds ([7 x i8], [7 x i8]* @.str.2, i64 0, i64 0), i8* %74, i8* %75)
  ret i32 0
}

declare dso_local i32 @__isoc99_scanf(i8*, ...) #1

; Function Attrs: nounwind
declare dso_local i8* @strcpy(i8*, i8*) #2

; Function Attrs: nounwind readonly
declare dso_local i64 @strlen(i8*) #3

declare dso_local i32 @printf(i8*, ...) #1


!llvm.module.flags = !{!0}
!llvm.ident = !{!1}

!0 = !{i32 1, !"wchar_size", i32 4}
!1 = !{!"clang version 10.0.0-4ubuntu1 "}
