; ModuleID = 'source-C-CXX/23/653.c'
source_filename = "source-C-CXX/23/653.c"
target datalayout = "e-m:e-p270:32:32-p271:32:32-p272:64:64-i64:64-f80:128-n8:16:32:64-S128"
target triple = "x86_64-pc-linux-gnu"

@.str = private unnamed_addr constant [3 x i8] c"%s\00", align 1
@.str.1 = private unnamed_addr constant [3 x i8] c"%c\00", align 1
@.str.2 = private unnamed_addr constant [7 x i8] c"%s\0A%s\0A\00", align 1

; Function Attrs: nofree nounwind sspstrong uwtable
define dso_local i32 @main() local_unnamed_addr #0 {
  %1 = alloca [50 x [20 x i8]], align 16
  %2 = alloca i8, align 1
  %3 = alloca [50 x i8], align 16
  %4 = alloca [50 x i8], align 16
  %5 = getelementptr inbounds [50 x [20 x i8]], [50 x [20 x i8]]* %1, i64 0, i64 0, i64 0
  call void @llvm.lifetime.start.p0i8(i64 1000, i8* nonnull %5) #5
  call void @llvm.lifetime.start.p0i8(i64 1, i8* nonnull %2) #5
  %6 = getelementptr inbounds [50 x i8], [50 x i8]* %3, i64 0, i64 0
  call void @llvm.lifetime.start.p0i8(i64 50, i8* nonnull %6) #5
  %7 = getelementptr inbounds [50 x i8], [50 x i8]* %4, i64 0, i64 0
  call void @llvm.lifetime.start.p0i8(i64 50, i8* nonnull %7) #5
  br label %8

8:                                                ; preds = %8, %0
  %9 = phi i64 [ %15, %8 ], [ 0, %0 ]
  %10 = getelementptr inbounds [50 x [20 x i8]], [50 x [20 x i8]]* %1, i64 0, i64 %9, i64 0
  %11 = call i32 (i8*, ...) @__isoc99_scanf(i8* getelementptr inbounds ([3 x i8], [3 x i8]* @.str, i64 0, i64 0), i8* nonnull %10)
  %12 = call i32 (i8*, ...) @__isoc99_scanf(i8* getelementptr inbounds ([3 x i8], [3 x i8]* @.str.1, i64 0, i64 0), i8* nonnull %2)
  %13 = load i8, i8* %2, align 1, !tbaa !5
  %14 = icmp eq i8 %13, 10
  %15 = add nuw i64 %9, 1
  br i1 %14, label %16, label %8

16:                                               ; preds = %8
  %17 = call i8* @strcpy(i8* noundef nonnull %6, i8* noundef nonnull %5) #5
  %18 = call i8* @strcpy(i8* noundef nonnull %7, i8* noundef nonnull %5) #5
  %19 = add i64 %9, 1
  %20 = and i64 %19, 4294967295
  br label %21

21:                                               ; preds = %16, %34
  %22 = phi i64 [ 0, %16 ], [ %35, %34 ]
  %23 = getelementptr inbounds [50 x [20 x i8]], [50 x [20 x i8]]* %1, i64 0, i64 %22, i64 0
  %24 = call i64 @strlen(i8* noundef nonnull %23) #6
  %25 = call i64 @strlen(i8* noundef nonnull %6) #6
  %26 = icmp ugt i64 %24, %25
  br i1 %26, label %27, label %29

27:                                               ; preds = %21
  %28 = call i8* @strcpy(i8* noundef nonnull %6, i8* noundef nonnull %23) #5
  br label %29

29:                                               ; preds = %27, %21
  %30 = call i64 @strlen(i8* noundef nonnull %7) #6
  %31 = icmp ult i64 %24, %30
  br i1 %31, label %32, label %34

32:                                               ; preds = %29
  %33 = call i8* @strcpy(i8* noundef nonnull %7, i8* noundef nonnull %23) #5
  br label %34

34:                                               ; preds = %29, %32
  %35 = add nuw nsw i64 %22, 1
  %36 = icmp eq i64 %35, %20
  br i1 %36, label %37, label %21, !llvm.loop !8

37:                                               ; preds = %34
  %38 = call i32 (i8*, ...) @printf(i8* nonnull dereferenceable(1) getelementptr inbounds ([7 x i8], [7 x i8]* @.str.2, i64 0, i64 0), i8* nonnull %6, i8* nonnull %7)
  call void @llvm.lifetime.end.p0i8(i64 50, i8* nonnull %7) #5
  call void @llvm.lifetime.end.p0i8(i64 50, i8* nonnull %6) #5
  call void @llvm.lifetime.end.p0i8(i64 1, i8* nonnull %2) #5
  call void @llvm.lifetime.end.p0i8(i64 1000, i8* nonnull %5) #5
  ret i32 0
}

; Function Attrs: argmemonly mustprogress nofree nosync nounwind willreturn
declare void @llvm.lifetime.start.p0i8(i64 immarg, i8* nocapture) #1

; Function Attrs: nofree nounwind
declare noundef i32 @__isoc99_scanf(i8* nocapture noundef readonly, ...) local_unnamed_addr #2

; Function Attrs: argmemonly mustprogress nofree nounwind willreturn
declare i8* @strcpy(i8* noalias returned writeonly, i8* noalias nocapture readonly) local_unnamed_addr #3

; Function Attrs: argmemonly mustprogress nofree nounwind readonly willreturn
declare i64 @strlen(i8* nocapture) local_unnamed_addr #4

; Function Attrs: nofree nounwind
declare noundef i32 @printf(i8* nocapture noundef readonly, ...) local_unnamed_addr #2

; Function Attrs: argmemonly mustprogress nofree nosync nounwind willreturn
declare void @llvm.lifetime.end.p0i8(i64 immarg, i8* nocapture) #1


!llvm.module.flags = !{!0, !1, !2, !3}
!llvm.ident = !{!4}

!0 = !{i32 1, !"wchar_size", i32 4}
!1 = !{i32 7, !"PIC Level", i32 2}
!2 = !{i32 7, !"PIE Level", i32 2}
!3 = !{i32 7, !"uwtable", i32 1}
!4 = !{!"clang version 13.0.0"}
!5 = !{!6, !6, i64 0}
!6 = !{!"omnipotent char", !7, i64 0}
!7 = !{!"Simple C/C++ TBAA"}
!8 = distinct !{!8, !9}
!9 = !{!"llvm.loop.mustprogress"}
